; Function Attrs: mustprogress uwtable
define void @_ZN2cv15line_descriptor11LSDDetector6detectERKNS_3MatERSt6vectorINS0_7KeyLineESaIS6_EEiiS4_(ptr noundef nonnull align 8 dereferenceable(88) %0, ptr noundef nonnull align 8 dereferenceable(96) %1, ptr noundef nonnull align 8 captures(none) dereferenceable(24) %2, i32 noundef %3, i32 noundef %4, ptr noundef nonnull align 8 dereferenceable(96) %5) local_unnamed_addr #3 align 2 personality ptr @__gxx_personality_v0 {
  %7 = alloca %"class.std::__cxx11::basic_string", align 8
  %8 = alloca %"class.std::allocator.0", align 1
  %9 = getelementptr inbounds nuw i8, ptr %5, i64 16
  %10 = load ptr, ptr %9, align 8, !tbaa !53
  %.not = icmp eq ptr %10, null
  br i1 %.not, label %.critedge, label %11

11:                                               ; preds = %6
  %12 = getelementptr inbounds nuw i8, ptr %5, i64 64
  %13 = load ptr, ptr %12, align 8, !tbaa !54
  %14 = getelementptr inbounds nuw i8, ptr %13, i64 4
  %15 = load i32, ptr %14, align 4, !tbaa !55
  %16 = load i32, ptr %13, align 4, !tbaa !55
  %17 = getelementptr inbounds nuw i8, ptr %1, i64 64
  %18 = load ptr, ptr %17, align 8, !tbaa !54
  %19 = getelementptr inbounds nuw i8, ptr %18, i64 4
  %20 = load i32, ptr %19, align 4, !tbaa !55
  %21 = load i32, ptr %18, align 4, !tbaa !55
  %22 = icmp ne i32 %15, %20
  %23 = icmp ne i32 %16, %21
  %.not6.i = select i1 %22, i1 true, i1 %23
  br i1 %.not6.i, label %.critedge2, label %24

24:                                               ; preds = %11
  %25 = load i32, ptr %5, align 8, !tbaa !56
  %26 = and i32 %25, 4095
  %.not14 = icmp eq i32 %26, 0
  br i1 %.not14, label %.critedge, label %.critedge2

.critedge2:                                       ; preds = %11, %24
  call void @llvm.lifetime.start.p0(i64 32, ptr nonnull %7) #23
  call void @llvm.lifetime.start.p0(i64 1, ptr nonnull %8) #23
  call void @_ZNSt7__cxx1112basic_stringIcSt11char_traitsIcESaIcEEC2EPKcRKS3_(ptr noundef nonnull align 8 dereferenceable(32) %7, ptr noundef nonnull @.str, ptr noundef nonnull align 1 dereferenceable(1) %8)
  invoke void @_ZN2cv5errorEiRKNSt7__cxx1112basic_stringIcSt11char_traitsIcESaIcEEEPKcS9_i(i32 noundef -5, ptr noundef nonnull align 8 dereferenceable(32) %7, ptr noundef nonnull @__func__._ZN2cv15line_descriptor11LSDDetector6detectERKNS_3MatERSt6vectorINS0_7KeyLineESaIS6_EEiiS4_, ptr noundef nonnull @.str.1, i32 noundef 112) #24
          to label %27 unwind label %28

27:                                               ; preds = %.critedge2
  unreachable

28:                                               ; preds = %.critedge2
  %29 = landingpad { ptr, i32 }
          cleanup
  %30 = load ptr, ptr %7, align 8, !tbaa !57
  %31 = getelementptr inbounds nuw i8, ptr %7, i64 16
  %32 = icmp eq ptr %30, %31
  br i1 %32, label %_ZNKSt7__cxx1112basic_stringIcSt11char_traitsIcESaIcEE11_M_is_localEv.exit.thread.i.i, label %_ZNKSt7__cxx1112basic_stringIcSt11char_traitsIcESaIcEE11_M_is_localEv.exit.i.i

_ZNKSt7__cxx1112basic_stringIcSt11char_traitsIcESaIcEE11_M_is_localEv.exit.thread.i.i: ; preds = %28
  %33 = getelementptr inbounds nuw i8, ptr %7, i64 8
  %34 = load i64, ptr %33, align 8, !tbaa !61
  %35 = icmp ult i64 %34, 16
  call void @llvm.assume(i1 %35)
  br label %_ZNSt7__cxx1112basic_stringIcSt11char_traitsIcESaIcEED2Ev.exit

_ZNKSt7__cxx1112basic_stringIcSt11char_traitsIcESaIcEE11_M_is_localEv.exit.i.i: ; preds = %28
  call void @_ZdlPv(ptr noundef %30) #26
  br label %_ZNSt7__cxx1112basic_stringIcSt11char_traitsIcESaIcEED2Ev.exit

_ZNSt7__cxx1112basic_stringIcSt11char_traitsIcESaIcEED2Ev.exit: ; preds = %_ZNKSt7__cxx1112basic_stringIcSt11char_traitsIcESaIcEE11_M_is_localEv.exit.i.i, %_ZNKSt7__cxx1112basic_stringIcSt11char_traitsIcESaIcEE11_M_is_localEv.exit.thread.i.i
  call void @llvm.lifetime.end.p0(i64 1, ptr nonnull %8) #23
  call void @llvm.lifetime.end.p0(i64 32, ptr nonnull %7) #23
  resume { ptr, i32 } %29

.critedge:                                        ; preds = %6, %24
  tail call void @_ZNK2cv15line_descriptor11LSDDetector10detectImplERKNS_3MatERSt6vectorINS0_7KeyLineESaIS6_EEiiS4_(ptr noundef nonnull align 8 dereferenceable(88) %0, ptr noundef nonnull align 8 dereferenceable(96) %1, ptr noundef nonnull align 8 dereferenceable(24) %2, i32 noundef %4, i32 noundef %3, ptr noundef nonnull align 8 dereferenceable(96) %5)
  ret void
}